TN:
SF:/home/tnsadithya/socket_c/systems_programming/linux-sysnet-prog/test/test_fileio.cpp
FN:15,_ZN30TEST_GROUP_CppUTestGroupFileIO5setupEv
FNDA:45,_ZN30TEST_GROUP_CppUTestGroupFileIO5setupEv
FN:27,_ZN30TEST_GROUP_CppUTestGroupFileIO8teardownEv
FNDA:45,_ZN30TEST_GROUP_CppUTestGroupFileIO8teardownEv
FN:33,_ZN35TEST_FileIO_CanReadFileContent_TestC2Ev
FNDA:5,_ZN35TEST_FileIO_CanReadFileContent_TestC2Ev
FN:33,_ZN40TEST_FileIO_CanReadFileContent_TestShell10createTestEv
FNDA:5,_ZN40TEST_FileIO_CanReadFileContent_TestShell10createTestEv
FN:33,_ZN35TEST_FileIO_CanReadFileContent_Test8testBodyEv
FNDA:5,_ZN35TEST_FileIO_CanReadFileContent_Test8testBodyEv
FN:45,_ZN34TEST_FileIO_fileNameNullCheck_TestC2Ev
FNDA:5,_ZN34TEST_FileIO_fileNameNullCheck_TestC2Ev
FN:45,_ZN39TEST_FileIO_fileNameNullCheck_TestShell10createTestEv
FNDA:5,_ZN39TEST_FileIO_fileNameNullCheck_TestShell10createTestEv
FN:45,_ZN34TEST_FileIO_fileNameNullCheck_Test8testBodyEv
FNDA:5,_ZN34TEST_FileIO_fileNameNullCheck_Test8testBodyEv
FN:51,_ZN32TEST_FileIO_BufferNULLcheck_TestC2Ev
FNDA:5,_ZN32TEST_FileIO_BufferNULLcheck_TestC2Ev
FN:51,_ZN37TEST_FileIO_BufferNULLcheck_TestShell10createTestEv
FNDA:5,_ZN37TEST_FileIO_BufferNULLcheck_TestShell10createTestEv
FN:51,_ZN32TEST_FileIO_BufferNULLcheck_Test8testBodyEv
FNDA:5,_ZN32TEST_FileIO_BufferNULLcheck_Test8testBodyEv
FN:57,_ZN32TEST_FileIO_FileDoesnotExit_TestC2Ev
FNDA:5,_ZN32TEST_FileIO_FileDoesnotExit_TestC2Ev
FN:57,_ZN37TEST_FileIO_FileDoesnotExit_TestShell10createTestEv
FNDA:5,_ZN37TEST_FileIO_FileDoesnotExit_TestShell10createTestEv
FN:57,_ZN32TEST_FileIO_FileDoesnotExit_Test8testBodyEv
FNDA:5,_ZN32TEST_FileIO_FileDoesnotExit_Test8testBodyEv
FN:65,_ZN29TEST_FileIO_FileReadFail_TestC2Ev
FNDA:5,_ZN29TEST_FileIO_FileReadFail_TestC2Ev
FN:65,_ZN34TEST_FileIO_FileReadFail_TestShell10createTestEv
FNDA:5,_ZN34TEST_FileIO_FileReadFail_TestShell10createTestEv
FN:65,_ZN29TEST_FileIO_FileReadFail_Test8testBodyEv
FNDA:5,_ZN29TEST_FileIO_FileReadFail_Test8testBodyEv
FN:85,_ZN36TEST_FileIO_CanWriteFileContent_TestC2Ev
FNDA:5,_ZN36TEST_FileIO_CanWriteFileContent_TestC2Ev
FN:85,_ZN41TEST_FileIO_CanWriteFileContent_TestShell10createTestEv
FNDA:5,_ZN41TEST_FileIO_CanWriteFileContent_TestShell10createTestEv
FN:85,_ZN36TEST_FileIO_CanWriteFileContent_Test8testBodyEv
FNDA:5,_ZN36TEST_FileIO_CanWriteFileContent_Test8testBodyEv
FN:99,_ZN39TEST_FileIO_WriteNULLFilenameFails_TestC2Ev
FNDA:5,_ZN39TEST_FileIO_WriteNULLFilenameFails_TestC2Ev
FN:99,_ZN44TEST_FileIO_WriteNULLFilenameFails_TestShell10createTestEv
FNDA:5,_ZN44TEST_FileIO_WriteNULLFilenameFails_TestShell10createTestEv
FN:99,_ZN39TEST_FileIO_WriteNULLFilenameFails_Test8testBodyEv
FNDA:5,_ZN39TEST_FileIO_WriteNULLFilenameFails_Test8testBodyEv
FN:104,_ZN35TEST_FileIO_WriteNULLdataFails_TestC2Ev
FNDA:5,_ZN35TEST_FileIO_WriteNULLdataFails_TestC2Ev
FN:104,_ZN40TEST_FileIO_WriteNULLdataFails_TestShell10createTestEv
FNDA:5,_ZN40TEST_FileIO_WriteNULLdataFails_TestShell10createTestEv
FN:104,_ZN35TEST_FileIO_WriteNULLdataFails_Test8testBodyEv
FNDA:5,_ZN35TEST_FileIO_WriteNULLdataFails_Test8testBodyEv
FN:109,_ZN43TEST_FileIO_WriteToUnwritableFileFails_Test8testBodyEv
FNDA:5,_ZN43TEST_FileIO_WriteToUnwritableFileFails_Test8testBodyEv
FN:109,_ZN43TEST_FileIO_WriteToUnwritableFileFails_TestC2Ev
FNDA:5,_ZN43TEST_FileIO_WriteToUnwritableFileFails_TestC2Ev
FN:109,_ZN48TEST_FileIO_WriteToUnwritableFileFails_TestShell10createTestEv
FNDA:5,_ZN48TEST_FileIO_WriteToUnwritableFileFails_TestShell10createTestEv
DA:15,45
DA:16,45
DA:18,45
DA:21,45
DA:22,45
DA:23,45
DA:24,45
DA:25,45
DA:27,45
DA:28,45
DA:29,45
DA:30,45
DA:33,5
DA:34,5
DA:35,5
DA:36,5
DA:37,5
DA:39,5
DA:40,5
DA:41,5
DA:42,5
DA:33,5
DA:33,5
DA:45,5
DA:46,5
DA:47,5
DA:48,5
DA:45,5
DA:45,5
DA:51,5
DA:52,5
DA:53,5
DA:54,5
DA:51,5
DA:51,5
DA:57,5
DA:58,5
DA:60,5
DA:61,5
DA:62,5
DA:63,5
DA:57,5
DA:57,5
DA:65,5
DA:66,5
DA:67,5
DA:68,5
DA:70,5
DA:71,5
DA:72,5
DA:65,5
DA:65,5
DA:85,5
DA:86,5
DA:87,5
DA:89,5
DA:90,5
DA:91,5
DA:92,5
DA:85,5
DA:85,5
DA:99,5
DA:100,5
DA:101,5
DA:102,5
DA:99,5
DA:99,5
DA:104,5
DA:105,5
DA:106,5
DA:107,5
DA:104,5
DA:104,5
DA:109,5
DA:111,5
DA:114,5
DA:115,5
DA:117,5
DA:118,5
DA:119,5
DA:120,5
DA:121,5
DA:109,5
DA:109,5
end_of_record
TN:
SF:/home/tnsadithya/socket_c/systems_programming/linux-sysnet-prog/test/test_main.cpp
FN:9,_ZN39TEST_HostnameTest_GetHostnameWorks_Test8testBodyEv
FNDA:5,_ZN39TEST_HostnameTest_GetHostnameWorks_Test8testBodyEv
FN:9,_ZN44TEST_HostnameTest_GetHostnameWorks_TestShell10createTestEv
FNDA:5,_ZN44TEST_HostnameTest_GetHostnameWorks_TestShell10createTestEv
FN:9,_ZN39TEST_HostnameTest_GetHostnameWorks_TestC2Ev
FNDA:5,_ZN39TEST_HostnameTest_GetHostnameWorks_TestC2Ev
FN:15,main
FNDA:5,main
DA:9,5
DA:10,5
DA:11,5
DA:12,5
DA:13,5
DA:9,5
DA:9,5
DA:15,5
DA:16,5
end_of_record
TN:
SF:/home/tnsadithya/socket_c/systems_programming/linux-sysnet-prog/src/fileio.c
FN:8,read_file
FNDA:30,read_file
FN:30,write_file
FNDA:20,write_file
DA:8,30
DA:9,30
DA:10,10
DA:11,10
DA:13,20
DA:14,20
DA:15,5
DA:16,5
DA:18,15
DA:19,15
DA:20,5
DA:21,5
DA:22,5
DA:24,10
DA:26,10
DA:27,10
DA:30,20
DA:32,20
DA:34,20
DA:35,10
DA:36,10
DA:38,10
DA:40,5
DA:41,5
DA:42,0
DA:43,0
DA:46,5
DA:47,5
DA:48,0
DA:49,0
DA:50,0
DA:53,5
DA:54,5
end_of_record
TN:
SF:/home/tnsadithya/socket_c/systems_programming/linux-sysnet-prog/src/main.c
FN:6,get_hostname
FNDA:5,get_hostname
DA:6,5
DA:7,5
end_of_record
